; Function Attrs: mustprogress uwtable
define void @_ZNK8QuantLib18PolynomialFunction14initializeEqs_Edd(ptr nocapture noundef nonnull readonly align 8 dereferenceable(112) %this, double noundef %t, double noundef %t2) local_unnamed_addr #0 align 2 {
entry:
  %sub = fsub double %t2, %t
  %0 = load i64, ptr %this, align 8, !tbaa !13
  %cmp13.not = icmp eq i64 %0, 0
  br i1 %cmp13.not, label %for.cond.cleanup, label %for.cond2.preheader.lr.ph

for.cond2.preheader.lr.ph:                        ; preds = %entry
  %eqs_ = getelementptr inbounds nuw i8, ptr %this, i64 88
  %columns_.i.i = getelementptr inbounds nuw i8, ptr %this, i64 104
  br label %for.cond2.preheader

for.cond2.preheader:                              ; preds = %for.cond2.preheader.lr.ph, %for.cond.cleanup5
  %1 = phi i64 [ %0, %for.cond2.preheader.lr.ph ], [ %2, %for.cond.cleanup5 ]
  %i.014 = phi i64 [ 0, %for.cond2.preheader.lr.ph ], [ %inc13, %for.cond.cleanup5 ]
  %cmp410 = icmp ult i64 %i.014, %1
  br i1 %cmp410, label %for.body6, label %for.cond.cleanup5

for.cond.cleanup:                                 ; preds = %for.cond.cleanup5, %entry
  ret void

for.cond.cleanup5:                                ; preds = %for.body6, %for.cond2.preheader
  %2 = phi i64 [ %1, %for.cond2.preheader ], [ %7, %for.body6 ]
  %inc13 = add nuw i64 %i.014, 1
  %cmp = icmp ult i64 %inc13, %2
  br i1 %cmp, label %for.cond2.preheader, label %for.cond.cleanup, !llvm.loop !44

for.body6:                                        ; preds = %for.cond2.preheader, %for.body6
  %j.012 = phi i64 [ %add, %for.body6 ], [ %i.014, %for.cond2.preheader ]
  %tau.011 = phi double [ %mul, %for.body6 ], [ 1.000000e+00, %for.cond2.preheader ]
  %mul = fmul double %sub, %tau.011
  %add = add nuw i64 %j.012, 1
  %call = tail call noundef nonnull align 8 dereferenceable(24) ptr @_ZN8QuantLib14PascalTriangle3getEm(i64 noundef %add)
  %3 = load ptr, ptr %call, align 8, !tbaa !45
  %add.ptr.i = getelementptr inbounds nuw i64, ptr %3, i64 %i.014
  %4 = load i64, ptr %add.ptr.i, align 8, !tbaa !32
  %conv = uitofp i64 %4 to double
  %mul8 = fmul double %mul, %conv
  %conv10 = uitofp i64 %add to double
  %div = fdiv double %mul8, %conv10
  %5 = load ptr, ptr %eqs_, align 8, !tbaa !3
  %6 = load i64, ptr %columns_.i.i, align 8, !tbaa !47
  %mul.i.i = mul i64 %6, %i.014
  %add.ptr.i.i = getelementptr inbounds nuw double, ptr %5, i64 %mul.i.i
  %arrayidx = getelementptr inbounds nuw double, ptr %add.ptr.i.i, i64 %j.012
  store double %div, ptr %arrayidx, align 8, !tbaa !27
  %7 = load i64, ptr %this, align 8, !tbaa !13
  %cmp4 = icmp ult i64 %add, %7
  br i1 %cmp4, label %for.body6, label %for.cond.cleanup5, !llvm.loop !48
}